target datalayout = "e-m:e-p270:32:32-p271:32:32-p272:64:64-i64:64-i128:128-f80:128-n8:16:32:64-S128"
target triple = "x86_64-pc-linux-gnu"

%"struct.boost::test_tools::tt_detail::context_frame" = type { i32 }

; Function Attrs: mustprogress nounwind uwtable
define void @_ZN5boost10test_tools9tt_detail13context_frameD2Ev(ptr noundef nonnull align 4 dereferenceable(4) %0) unnamed_addr #4 align 2 personality ptr @__gxx_personality_v0 {
  %2 = alloca ptr, align 8
  store ptr %0, ptr %2, align 8, !tbaa !3
  %3 = load ptr, ptr %2, align 8
  %4 = getelementptr inbounds nuw %"struct.boost::test_tools::tt_detail::context_frame", ptr %3, i32 0, i32 0
  %5 = load i32, ptr %4, align 4, !tbaa !41
  invoke void @_ZN5boost9unit_test9framework13clear_contextEi(i32 noundef %5)
          to label %6 unwind label %7

6:                                                ; preds = %1
  ret void

7:                                                ; preds = %1
  %8 = landingpad { ptr, i32 }
          catch ptr null
  %9 = extractvalue { ptr, i32 } %8, 0
  call void @__clang_call_terminate(ptr %9) #22
  unreachable
}