; Function Attrs: mustprogress nounwind uwtable
define void @_ZN5boost10test_tools9tt_detail13context_frameD2Ev(ptr nocapture noundef nonnull readonly align 4 dereferenceable(4) %0) unnamed_addr #10 align 2 personality ptr @__gxx_personality_v0 {
  %2 = load i32, ptr %0, align 4, !tbaa !125
  invoke void @_ZN5boost9unit_test9framework13clear_contextEi(i32 noundef %2)
          to label %3 unwind label %4

3:                                                ; preds = %1
  ret void

4:                                                ; preds = %1
  %5 = landingpad { ptr, i32 }
          catch ptr null
  %6 = extractvalue { ptr, i32 } %5, 0
  tail call void @__clang_call_terminate(ptr %6) #34
  unreachable
}